target datalayout = "e-m:e-p270:32:32-p271:32:32-p272:64:64-i64:64-i128:128-f80:128-n8:16:32:64-S128"
target triple = "x86_64-pc-linux-gnu"

%struct.lxb_html_tree = type { ptr, ptr, ptr, ptr, ptr, ptr, ptr, %struct.lxb_html_tree_pending_table_t, ptr, i8, i8, i8, i8, i8, i8, ptr, ptr, ptr, i32, i64 }
%struct.lxb_html_tree_pending_table_t = type { ptr, i8 }

; Function Attrs: inlinehint nounwind uwtable
define internal ptr @lxb_html_tree_insert_html_element(ptr noundef %0, ptr noundef %1) #3 {
  %3 = alloca ptr, align 8
  %4 = alloca ptr, align 8
  store ptr %0, ptr %3, align 8, !tbaa !4
  store ptr %1, ptr %4, align 8, !tbaa !9
  %5 = load ptr, ptr %3, align 8, !tbaa !4
  %6 = load ptr, ptr %4, align 8, !tbaa !9
  %7 = call ptr @lxb_html_tree_insert_foreign_element(ptr noundef %5, ptr noundef %6, i64 noundef 2)
  ret ptr %7
}

; Function Attrs: inlinehint nounwind uwtable
define internal zeroext i1 @lxb_html_tree_insertion_mode_in_body_form(ptr noundef %0, ptr noundef %1) #3 {
  %3 = alloca i1, align 1
  %4 = alloca ptr, align 8
  %5 = alloca ptr, align 8
  %6 = alloca ptr, align 8
  %7 = alloca ptr, align 8
  %8 = alloca ptr, align 8
  %9 = alloca i32, align 4
  store ptr %0, ptr %4, align 8, !tbaa !4
  store ptr %1, ptr %5, align 8, !tbaa !9
  call void @llvm.lifetime.start.p0(i64 8, ptr %6) #5
  call void @llvm.lifetime.start.p0(i64 8, ptr %7) #5
  call void @llvm.lifetime.start.p0(i64 8, ptr %8) #5
  %10 = load ptr, ptr %4, align 8, !tbaa !4
  %11 = call ptr @lxb_html_tree_open_elements_find_reverse(ptr noundef %10, i64 noundef 179, i64 noundef 2, ptr noundef null)
  store ptr %11, ptr %7, align 8, !tbaa !37
  %12 = load ptr, ptr %4, align 8, !tbaa !4
  %13 = getelementptr inbounds nuw %struct.lxb_html_tree, ptr %12, i32 0, i32 3
  %14 = load ptr, ptr %13, align 8, !tbaa !39
  %15 = icmp ne ptr %14, null
  br i1 %15, label %16, label %22

16:                                               ; preds = %2
  %17 = load ptr, ptr %7, align 8, !tbaa !37
  %18 = icmp eq ptr %17, null
  br i1 %18, label %19, label %22

19:                                               ; preds = %16
  %20 = load ptr, ptr %4, align 8, !tbaa !4
  %21 = load ptr, ptr %5, align 8, !tbaa !9
  call void @lxb_html_tree_parse_error(ptr noundef %20, ptr noundef %21, i32 noundef 0)
  store i1 true, ptr %3, align 1
  store i32 1, ptr %9, align 4
  br label %49

22:                                               ; preds = %16, %2
  %23 = load ptr, ptr %4, align 8, !tbaa !4
  %24 = call ptr @lxb_html_tree_element_in_scope(ptr noundef %23, i64 noundef 145, i64 noundef 2, i32 noundef 32)
  store ptr %24, ptr %6, align 8, !tbaa !37
  %25 = load ptr, ptr %6, align 8, !tbaa !37
  %26 = icmp ne ptr %25, null
  br i1 %26, label %27, label %30

27:                                               ; preds = %22
  %28 = load ptr, ptr %4, align 8, !tbaa !4
  %29 = load ptr, ptr %5, align 8, !tbaa !9
  call void @lxb_html_tree_close_p_element(ptr noundef %28, ptr noundef %29)
  br label %30

30:                                               ; preds = %27, %22
  %31 = load ptr, ptr %4, align 8, !tbaa !4
  %32 = load ptr, ptr %5, align 8, !tbaa !9
  %33 = call ptr @lxb_html_tree_insert_html_element(ptr noundef %31, ptr noundef %32)
  store ptr %33, ptr %8, align 8, !tbaa !40
  %34 = load ptr, ptr %8, align 8, !tbaa !40
  %35 = icmp eq ptr %34, null
  br i1 %35, label %36, label %41

36:                                               ; preds = %30
  %37 = load ptr, ptr %4, align 8, !tbaa !4
  %38 = getelementptr inbounds nuw %struct.lxb_html_tree, ptr %37, i32 0, i32 18
  store i32 2, ptr %38, align 8, !tbaa !25
  %39 = load ptr, ptr %4, align 8, !tbaa !4
  %40 = call zeroext i1 @lxb_html_tree_process_abort(ptr noundef %39)
  store i1 %40, ptr %3, align 1
  store i32 1, ptr %9, align 4
  br label %49

41:                                               ; preds = %30
  %42 = load ptr, ptr %7, align 8, !tbaa !37
  %43 = icmp eq ptr %42, null
  br i1 %43, label %44, label %48

44:                                               ; preds = %41
  %45 = load ptr, ptr %8, align 8, !tbaa !40
  %46 = load ptr, ptr %4, align 8, !tbaa !4
  %47 = getelementptr inbounds nuw %struct.lxb_html_tree, ptr %46, i32 0, i32 3
  store ptr %45, ptr %47, align 8, !tbaa !39
  br label %48

48:                                               ; preds = %44, %41
  store i1 true, ptr %3, align 1
  store i32 1, ptr %9, align 4
  br label %49

49:                                               ; preds = %48, %36, %19
  call void @llvm.lifetime.end.p0(i64 8, ptr %8) #5
  call void @llvm.lifetime.end.p0(i64 8, ptr %7) #5
  call void @llvm.lifetime.end.p0(i64 8, ptr %6) #5
  %50 = load i1, ptr %3, align 1
  ret i1 %50
}