; Function Attrs: inlinehint nounwind uwtable
define internal fastcc zeroext i1 @lxb_html_tree_insertion_mode_in_body_form(ptr noundef %0, ptr noundef %1) unnamed_addr #3 {
  %3 = tail call ptr @lxb_html_tree_open_elements_find_reverse(ptr noundef %0, i64 noundef 179, i64 noundef 2, ptr noundef null) #6
  %4 = getelementptr inbounds nuw i8, ptr %0, i64 24
  %5 = load ptr, ptr %4, align 8, !tbaa !43
  %6 = icmp ne ptr %5, null
  %7 = icmp eq ptr %3, null
  %or.cond = select i1 %6, i1 %7, i1 false
  br i1 %or.cond, label %8, label %9

8:                                                ; preds = %2
  tail call void @lxb_html_tree_parse_error(ptr noundef nonnull %0, ptr noundef %1, i32 noundef 0) #6
  br label %20

9:                                                ; preds = %2
  %10 = tail call ptr @lxb_html_tree_element_in_scope(ptr noundef nonnull %0, i64 noundef 145, i64 noundef 2, i32 noundef 32) #6
  %.not = icmp eq ptr %10, null
  br i1 %.not, label %12, label %11

11:                                               ; preds = %9
  tail call void @lxb_html_tree_close_p_element(ptr noundef nonnull %0, ptr noundef %1) #6
  br label %12

12:                                               ; preds = %11, %9
  %13 = tail call ptr @lxb_html_tree_insert_foreign_element(ptr noundef nonnull %0, ptr noundef %1, i64 noundef 2) #6
  %14 = icmp eq ptr %13, null
  br i1 %14, label %15, label %18

15:                                               ; preds = %12
  %16 = getelementptr inbounds nuw i8, ptr %0, i64 112
  store i32 2, ptr %16, align 8, !tbaa !22
  %17 = tail call zeroext i1 @lxb_html_tree_process_abort(ptr noundef nonnull %0) #6
  br label %20

18:                                               ; preds = %12
  br i1 %7, label %19, label %20

19:                                               ; preds = %18
  store ptr %13, ptr %4, align 8, !tbaa !43
  br label %20

20:                                               ; preds = %18, %19, %15, %8
  %.0 = phi i1 [ true, %8 ], [ %17, %15 ], [ true, %19 ], [ true, %18 ]
  ret i1 %.0
}